; Function Attrs: nounwind uwtable
define noalias ptr @CRYPTO_malloc(i64 noundef %0, ptr noundef %1, i32 noundef %2) #2 {
  %4 = load ptr, ptr @malloc_impl, align 8, !tbaa !3
  %.not = icmp eq ptr %4, @CRYPTO_malloc
  br i1 %.not, label %9, label %5

5:                                                ; preds = %3
  %6 = tail call ptr %4(i64 noundef %0, ptr noundef %1, i32 noundef %2) #11
  %7 = icmp ne ptr %6, null
  %8 = icmp eq i64 %0, 0
  %or.cond = or i1 %8, %7
  br i1 %or.cond, label %19, label %15

9:                                                ; preds = %3
  %10 = icmp eq i64 %0, 0
  br i1 %10, label %19, label %11

11:                                               ; preds = %9
  %.b = load i1, ptr @allow_customize, align 4
  br i1 %.b, label %13, label %12

12:                                               ; preds = %11
  store i1 true, ptr @allow_customize, align 4
  br label %13

13:                                               ; preds = %12, %11
  %14 = tail call noalias ptr @malloc(i64 noundef %0) #12
  %.not20 = icmp eq ptr %14, null
  br i1 %.not20, label %15, label %19

15:                                               ; preds = %13, %5
  %16 = icmp ne ptr %1, null
  %17 = icmp ne i32 %2, 0
  %or.cond3 = or i1 %16, %17
  br i1 %or.cond3, label %18, label %19

18:                                               ; preds = %15
  tail call void @ERR_new() #11
  tail call void @ERR_set_debug(ptr noundef %1, i32 noundef %2, ptr noundef null) #11
  tail call void (i32, i32, ptr, ...) @ERR_set_error(i32 noundef 15, i32 noundef 786688, ptr noundef null) #11
  br label %19

19:                                               ; preds = %18, %15, %13, %9, %5
  %.0 = phi ptr [ %6, %5 ], [ null, %9 ], [ %14, %13 ], [ null, %15 ], [ null, %18 ]
  ret ptr %.0
}